target datalayout = "e-m:e-p270:32:32-p271:32:32-p272:64:64-i64:64-i128:128-f80:128-n8:16:32:64-S128"
target triple = "x86_64-pc-linux-gnu"

%struct.darktable_t = type { %struct.dt_codepath_t, i32, i32, ptr, ptr, ptr, ptr, ptr, ptr, ptr, ptr, ptr, ptr, ptr, ptr, ptr, ptr, ptr, ptr, ptr, ptr, ptr, ptr, ptr, ptr, ptr, ptr, ptr, ptr, ptr, [64 x %struct.dt_pthread_mutex_t], %struct.dt_pthread_mutex_t, %struct.dt_pthread_mutex_t, %struct.dt_pthread_mutex_t, %struct.dt_pthread_mutex_t, %struct.dt_pthread_mutex_t, ptr, ptr, ptr, ptr, ptr, ptr, ptr, ptr, ptr, ptr, ptr, ptr, ptr, %struct.dt_lua_state_t, ptr, double, ptr, i32, [47 x i32], i32, i32, ptr, ptr, %struct.dt_sys_resources_t, %struct.dt_backthumb_t, %struct.dt_gimp_t }
%struct.dt_codepath_t = type { i8, [3 x i8] }
%struct.dt_pthread_mutex_t = type { %union.pthread_mutex_t }
%union.pthread_mutex_t = type { %struct.__pthread_mutex_s }
%struct.__pthread_mutex_s = type { i32, i32, i32, i32, i32, i16, i16, %struct.__pthread_internal_list }
%struct.__pthread_internal_list = type { ptr, ptr }
%struct.dt_lua_state_t = type { i32 }
%struct.dt_sys_resources_t = type { i64, i64, ptr, ptr, i32 }
%struct.dt_backthumb_t = type { double, double, i32, i32, i32, i32 }
%struct.dt_gimp_t = type { i32, ptr, ptr, i32, i32 }
%struct._GdkRGBA = type { double, double, double, double }
%struct.dt_gui_gtk_t = type { ptr, %struct.dt_gui_widgets_t, %struct.dt_gui_scrollbars_t, i32, ptr, i32, [39 x %struct._GdkRGBA], i32, i32, i32, i32, i32, double, double, double, double, ptr, double, double, double, double, i32, i32, [4096 x i8], i32, i32, i32, %struct.dt_pthread_mutex_t }
%struct.dt_gui_widgets_t = type { ptr, ptr, ptr, ptr, i32, i32, i32 }
%struct.dt_gui_scrollbars_t = type { ptr, ptr, i32 }
%struct.dt_ui_t = type { [16 x ptr], [6 x ptr], ptr, ptr, ptr, ptr, ptr, ptr, ptr }
%struct.dt_control_t = type { i32, ptr, %struct.dt_action_t, %struct.dt_action_t, %struct.dt_action_t, %struct.dt_action_t, %struct.dt_action_t, %struct.dt_action_t, %struct.dt_action_t, %struct.dt_action_t, %struct.dt_action_t, %struct.dt_action_t, %struct.dt_action_t, ptr, ptr, ptr, i32, ptr, i32, i32, ptr, ptr, [256 x i8], i32, double, i32, i32, i64, i32, i32, i32, double, double, i32, i32, i32, i32, i32, i32, [8 x [1000 x i8]], i32, i32, %struct.dt_pthread_mutex_t, i32, i32, [2 x [300 x i8]], i32, i32, %struct.dt_pthread_mutex_t, %struct.dt_pthread_mutex_t, %struct.dt_pthread_mutex_t, double, i32, i32, i32, %struct.dt_pthread_mutex_t, %struct.dt_pthread_mutex_t, %union.pthread_cond_t, i32, ptr, i64, i64, ptr, [5 x ptr], [5 x i64], %struct.dt_pthread_mutex_t, [3 x ptr], [3 x i8], [3 x i64], %struct.anon.0, %struct.anon.2 }
%struct.dt_action_t = type { i32, ptr, ptr, ptr, ptr, ptr }
%union.pthread_cond_t = type { %struct.__pthread_cond_s }
%struct.__pthread_cond_s = type { %union.__atomic_wide_counter, %union.__atomic_wide_counter, [2 x i32], [2 x i32], i32, i32, [2 x i32] }
%union.__atomic_wide_counter = type { i64 }
%struct.anon.0 = type { ptr, i64, i64, double, %struct.dt_pthread_mutex_t, %struct.anon.1 }
%struct.anon.1 = type { ptr, ptr, ptr, ptr, ptr, ptr }
%struct.anon.2 = type { %struct.anon.3 }
%struct.anon.3 = type { ptr, ptr }
%struct.dt_lib_module_t = type { %struct.dt_action_t, ptr, ptr, ptr, ptr, ptr, ptr, ptr, ptr, ptr, ptr, ptr, ptr, ptr, ptr, ptr, ptr, ptr, ptr, ptr, ptr, ptr, ptr, ptr, ptr, ptr, ptr, ptr, ptr, ptr, ptr, [128 x i8], ptr, ptr, i32, ptr, ptr, ptr, i32 }

@darktable = external global %struct.darktable_t, align 8
@busy_nest_count = internal global i32 0, align 4
@busy_prev_cursor = internal global ptr null, align 8

; Function Attrs: nounwind uwtable
define void @dt_gui_process_events() #0 {
  %1 = alloca i32, align 4
  call void @llvm.lifetime.start.p0(i64 4, ptr %1) #15
  store i32 200, ptr %1, align 4, !tbaa !17
  br label %2

2:                                                ; preds = %11, %0
  %3 = call i32 @g_main_context_iteration(ptr noundef null, i32 noundef 0)
  %4 = icmp ne i32 %3, 0
  br i1 %4, label %5, label %9

5:                                                ; preds = %2
  %6 = load i32, ptr %1, align 4, !tbaa !17
  %7 = add i32 %6, -1
  store i32 %7, ptr %1, align 4, !tbaa !17
  %8 = icmp ugt i32 %7, 0
  br label %9

9:                                                ; preds = %5, %2
  %10 = phi i1 [ false, %2 ], [ %8, %5 ]
  br i1 %10, label %11, label %12

11:                                               ; preds = %9
  br label %2

12:                                               ; preds = %9
  call void @llvm.lifetime.end.p0(i64 4, ptr %1) #15
  ret void
}

; Function Attrs: nounwind uwtable
define void @dt_gui_cursor_clear_busy() #0 {
  %1 = alloca ptr, align 8
  %2 = alloca ptr, align 8
  %3 = load i32, ptr @busy_nest_count, align 4, !tbaa !17
  %4 = icmp sgt i32 %3, 0
  br i1 %4, label %5, label %32

5:                                                ; preds = %0
  %6 = load i32, ptr @busy_nest_count, align 4, !tbaa !17
  %7 = add nsw i32 %6, -1
  store i32 %7, ptr @busy_nest_count, align 4, !tbaa !17
  %8 = load i32, ptr @busy_nest_count, align 4, !tbaa !17
  %9 = icmp eq i32 %8, 0
  br i1 %9, label %10, label %31

10:                                               ; preds = %5
  %11 = load ptr, ptr getelementptr inbounds nuw (%struct.darktable_t, ptr @darktable, i32 0, i32 14), align 8, !tbaa !24
  %12 = icmp ne ptr %11, null
  br i1 %12, label %13, label %31

13:                                               ; preds = %10
  call void @llvm.lifetime.start.p0(i64 8, ptr %1) #15
  %14 = load ptr, ptr getelementptr inbounds nuw (%struct.darktable_t, ptr @darktable, i32 0, i32 14), align 8, !tbaa !24
  %15 = getelementptr inbounds nuw %struct.dt_gui_gtk_t, ptr %14, i32 0, i32 0
  %16 = load ptr, ptr %15, align 8, !tbaa !72
  %17 = getelementptr inbounds nuw %struct.dt_ui_t, ptr %16, i32 0, i32 5
  %18 = load ptr, ptr %17, align 8, !tbaa !77
  store ptr %18, ptr %1, align 8, !tbaa !6
  call void @llvm.lifetime.start.p0(i64 8, ptr %2) #15
  %19 = load ptr, ptr %1, align 8, !tbaa !6
  %20 = call ptr @gtk_widget_get_window(ptr noundef %19)
  store ptr %20, ptr %2, align 8, !tbaa !284
  %21 = load ptr, ptr %2, align 8, !tbaa !284
  %22 = load ptr, ptr @busy_prev_cursor, align 8, !tbaa !353
  call void @gdk_window_set_cursor(ptr noundef %21, ptr noundef %22)
  call void @dt_gui_process_events()
  %23 = load ptr, ptr @busy_prev_cursor, align 8, !tbaa !353
  call void @g_object_unref(ptr noundef %23)
  store ptr null, ptr @busy_prev_cursor, align 8, !tbaa !353
  call void (...) @dt_control_allow_change_cursor()
  %24 = load ptr, ptr getelementptr inbounds nuw (%struct.darktable_t, ptr @darktable, i32 0, i32 12), align 8, !tbaa !130
  %25 = getelementptr inbounds nuw %struct.dt_control_t, ptr %24, i32 0, i32 69
  %26 = getelementptr inbounds nuw %struct.anon.0, ptr %25, i32 0, i32 5
  %27 = getelementptr inbounds nuw %struct.anon.1, ptr %26, i32 0, i32 0
  %28 = load ptr, ptr %27, align 8, !tbaa !355
  %29 = getelementptr inbounds nuw %struct.dt_lib_module_t, ptr %28, i32 0, i32 32
  %30 = load ptr, ptr %29, align 8, !tbaa !356
  call void @gtk_grab_remove(ptr noundef %30)
  call void @llvm.lifetime.end.p0(i64 8, ptr %2) #15
  call void @llvm.lifetime.end.p0(i64 8, ptr %1) #15
  br label %31

31:                                               ; preds = %13, %10, %5
  br label %32

32:                                               ; preds = %31, %0
  ret void
}