; Function Attrs: nounwind uwtable
define void @dt_gui_cursor_clear_busy() local_unnamed_addr #0 {
  %1 = load i32, ptr @busy_nest_count, align 4, !tbaa !62
  %2 = icmp sgt i32 %1, 0
  br i1 %2, label %3, label %23

3:                                                ; preds = %0
  %4 = add nsw i32 %1, -1
  store i32 %4, ptr @busy_nest_count, align 4, !tbaa !62
  %5 = icmp eq i32 %4, 0
  %6 = load ptr, ptr getelementptr inbounds nuw (i8, ptr @darktable, i64 104), align 8
  %7 = icmp ne ptr %6, null
  %or.cond = select i1 %5, i1 %7, i1 false
  br i1 %or.cond, label %8, label %23

8:                                                ; preds = %3
  %9 = load ptr, ptr %6, align 8, !tbaa !63
  %10 = getelementptr inbounds nuw i8, ptr %9, i64 200
  %11 = load ptr, ptr %10, align 8, !tbaa !64
  %12 = tail call ptr @gtk_widget_get_window(ptr noundef %11) #18
  %13 = load ptr, ptr @busy_prev_cursor, align 8, !tbaa !271
  tail call void @gdk_window_set_cursor(ptr noundef %12, ptr noundef %13) #18
  br label %14

14:                                               ; preds = %14, %8
  %.0.i = phi i32 [ 200, %8 ], [ %16, %14 ]
  %15 = tail call i32 @g_main_context_iteration(ptr noundef null, i32 noundef 0) #18
  %.not.i = icmp eq i32 %15, 0
  %16 = add nsw i32 %.0.i, -1
  %.not2.i = icmp eq i32 %16, 0
  %or.cond.i = select i1 %.not.i, i1 true, i1 %.not2.i
  br i1 %or.cond.i, label %dt_gui_process_events.exit, label %14

dt_gui_process_events.exit:                       ; preds = %14
  %17 = load ptr, ptr @busy_prev_cursor, align 8, !tbaa !271
  tail call void @g_object_unref(ptr noundef %17) #18
  store ptr null, ptr @busy_prev_cursor, align 8, !tbaa !271
  tail call void (...) @dt_control_allow_change_cursor() #18
  %18 = load ptr, ptr getelementptr inbounds nuw (i8, ptr @darktable, i64 88), align 8, !tbaa !120
  %19 = getelementptr inbounds nuw i8, ptr %18, i64 10176
  %20 = load ptr, ptr %19, align 8, !tbaa !273
  %21 = getelementptr inbounds nuw i8, ptr %20, i64 416
  %22 = load ptr, ptr %21, align 8, !tbaa !274
  tail call void @gtk_grab_remove(ptr noundef %22) #18
  br label %23

23:                                               ; preds = %3, %dt_gui_process_events.exit, %0
  ret void
}